; Function Attrs: nounwind uwtable
define i32 @cli_magic_scan_file(ptr noundef %0, ptr noundef %1, ptr noundef %2, i32 noundef %3) local_unnamed_addr #0 {
  %5 = tail call i32 (ptr, i32, ...) @open(ptr noundef %0, i32 noundef 0) #16
  %6 = icmp slt i32 %5, 0
  br i1 %6, label %10, label %7

7:                                                ; preds = %4
  %8 = tail call i32 @cli_magic_scan_desc_type(i32 noundef %5, ptr noundef %0, ptr noundef %1, i32 noundef 0, ptr noundef %2, i32 noundef %3)
  %9 = tail call i32 @close(i32 noundef %5) #16
  br label %10

10:                                               ; preds = %4, %7
  %.011 = phi i32 [ %8, %7 ], [ 8, %4 ]
  ret i32 %.011
}